; Function Attrs: mustprogress nofree norecurse nosync nounwind willreturn memory(argmem: read) uwtable
define noundef i64 @_ZNK5boost4urls6detail8url_impl3lenEi(ptr nocapture noundef nonnull readonly align 8 dereferenceable(171) %0, i32 noundef %1) local_unnamed_addr #4 align 2 {
  %3 = icmp eq i32 %1, 7
  br i1 %3, label %20, label %4

4:                                                ; preds = %2
  %5 = add nsw i32 %1, 1
  %6 = icmp eq i32 %5, -1
  br i1 %6, label %_ZNK5boost4urls6detail8url_impl6offsetEi.exit.thread, label %_ZNK5boost4urls6detail8url_impl6offsetEi.exit

_ZNK5boost4urls6detail8url_impl6offsetEi.exit:    ; preds = %4
  %7 = getelementptr inbounds nuw i8, ptr %0, i64 8
  %8 = sext i32 %5 to i64
  %9 = getelementptr inbounds [8 x i64], ptr %7, i64 0, i64 %8
  %10 = load i64, ptr %9, align 8, !tbaa !13
  %11 = icmp eq i32 %1, -1
  br i1 %11, label %_ZNK5boost4urls6detail8url_impl6offsetEi.exit3, label %_ZNK5boost4urls6detail8url_impl6offsetEi.exit.thread

_ZNK5boost4urls6detail8url_impl6offsetEi.exit.thread: ; preds = %4, %_ZNK5boost4urls6detail8url_impl6offsetEi.exit
  %12 = phi i64 [ %10, %_ZNK5boost4urls6detail8url_impl6offsetEi.exit ], [ 0, %4 ]
  %13 = getelementptr inbounds nuw i8, ptr %0, i64 8
  %14 = sext i32 %1 to i64
  %15 = getelementptr inbounds [8 x i64], ptr %13, i64 0, i64 %14
  %16 = load i64, ptr %15, align 8, !tbaa !13
  br label %_ZNK5boost4urls6detail8url_impl6offsetEi.exit3

_ZNK5boost4urls6detail8url_impl6offsetEi.exit3:   ; preds = %_ZNK5boost4urls6detail8url_impl6offsetEi.exit, %_ZNK5boost4urls6detail8url_impl6offsetEi.exit.thread
  %17 = phi i64 [ %12, %_ZNK5boost4urls6detail8url_impl6offsetEi.exit.thread ], [ %10, %_ZNK5boost4urls6detail8url_impl6offsetEi.exit ]
  %18 = phi i64 [ %16, %_ZNK5boost4urls6detail8url_impl6offsetEi.exit.thread ], [ 0, %_ZNK5boost4urls6detail8url_impl6offsetEi.exit ]
  %19 = sub i64 %17, %18
  br label %20

20:                                               ; preds = %2, %_ZNK5boost4urls6detail8url_impl6offsetEi.exit3
  %21 = phi i64 [ %19, %_ZNK5boost4urls6detail8url_impl6offsetEi.exit3 ], [ 0, %2 ]
  ret i64 %21
}